target datalayout = "e-m:e-p270:32:32-p271:32:32-p272:64:64-i64:64-i128:128-f80:128-n8:16:32:64-S128"
target triple = "x86_64-pc-linux-gnu"

%struct.LOCKTAG = type { i32, i32, i32, i16, i8, i8 }
%struct.XactLockTableWaitInfo = type { i32, ptr, ptr }
%struct.ErrorContextCallback = type { ptr, ptr, ptr }

@error_context_stack = external global ptr, align 8

; Function Attrs: nounwind uwtable
define dso_local void @XactLockTableWait(i32 noundef %0, ptr noundef %1, ptr noundef %2, i32 noundef %3) #0 {
  %5 = alloca i32, align 4
  %6 = alloca ptr, align 8
  %7 = alloca ptr, align 8
  %8 = alloca i32, align 4
  %9 = alloca %struct.LOCKTAG, align 4
  %10 = alloca %struct.XactLockTableWaitInfo, align 8
  %11 = alloca %struct.ErrorContextCallback, align 8
  %12 = alloca i8, align 1
  store i32 %0, ptr %5, align 4
  store ptr %1, ptr %6, align 8
  store ptr %2, ptr %7, align 8
  store i32 %3, ptr %8, align 4
  call void @llvm.lifetime.start.p0(i64 16, ptr %9) #6
  call void @llvm.lifetime.start.p0(i64 24, ptr %10) #6
  call void @llvm.lifetime.start.p0(i64 24, ptr %11) #6
  call void @llvm.lifetime.start.p0(i64 1, ptr %12) #6
  store i8 1, ptr %12, align 1
  %13 = load i32, ptr %8, align 4
  %14 = icmp ne i32 %13, 0
  br i1 %14, label %15, label %26

15:                                               ; preds = %4
  %16 = load ptr, ptr %6, align 8
  %17 = getelementptr inbounds nuw %struct.XactLockTableWaitInfo, ptr %10, i32 0, i32 1
  store ptr %16, ptr %17, align 8
  %18 = load ptr, ptr %7, align 8
  %19 = getelementptr inbounds nuw %struct.XactLockTableWaitInfo, ptr %10, i32 0, i32 2
  store ptr %18, ptr %19, align 8
  %20 = load i32, ptr %8, align 4
  %21 = getelementptr inbounds nuw %struct.XactLockTableWaitInfo, ptr %10, i32 0, i32 0
  store i32 %20, ptr %21, align 8
  %22 = getelementptr inbounds nuw %struct.ErrorContextCallback, ptr %11, i32 0, i32 1
  store ptr @XactLockTableWaitErrorCb, ptr %22, align 8
  %23 = getelementptr inbounds nuw %struct.ErrorContextCallback, ptr %11, i32 0, i32 2
  store ptr %10, ptr %23, align 8
  %24 = load ptr, ptr @error_context_stack, align 8
  %25 = getelementptr inbounds nuw %struct.ErrorContextCallback, ptr %11, i32 0, i32 0
  store ptr %24, ptr %25, align 8
  store ptr %11, ptr @error_context_stack, align 8
  br label %26

26:                                               ; preds = %15, %4
  br label %27

27:                                               ; preds = %44, %26
  %28 = load i32, ptr %5, align 4
  %29 = getelementptr inbounds nuw %struct.LOCKTAG, ptr %9, i32 0, i32 0
  store i32 %28, ptr %29, align 4
  %30 = getelementptr inbounds nuw %struct.LOCKTAG, ptr %9, i32 0, i32 1
  store i32 0, ptr %30, align 4
  %31 = getelementptr inbounds nuw %struct.LOCKTAG, ptr %9, i32 0, i32 2
  store i32 0, ptr %31, align 4
  %32 = getelementptr inbounds nuw %struct.LOCKTAG, ptr %9, i32 0, i32 3
  store i16 0, ptr %32, align 4
  %33 = getelementptr inbounds nuw %struct.LOCKTAG, ptr %9, i32 0, i32 4
  store i8 5, ptr %33, align 2
  %34 = getelementptr inbounds nuw %struct.LOCKTAG, ptr %9, i32 0, i32 5
  store i8 1, ptr %34, align 1
  %35 = call i32 @LockAcquire(ptr noundef %9, i32 noundef 5, i1 noundef zeroext false, i1 noundef zeroext false)
  %36 = call zeroext i1 @LockRelease(ptr noundef %9, i32 noundef 5, i1 noundef zeroext false)
  %37 = load i32, ptr %5, align 4
  %38 = call zeroext i1 @TransactionIdIsInProgress(i32 noundef %37)
  br i1 %38, label %40, label %39

39:                                               ; preds = %27
  br label %47

40:                                               ; preds = %27
  %41 = load i8, ptr %12, align 1, !range !4, !noundef !5
  %42 = trunc i8 %41 to i1
  br i1 %42, label %44, label %43

43:                                               ; preds = %40
  call void @pg_usleep(i64 noundef 1000)
  br label %44

44:                                               ; preds = %43, %40
  store i8 0, ptr %12, align 1
  %45 = load i32, ptr %5, align 4
  %46 = call i32 @SubTransGetTopmostTransaction(i32 noundef %45)
  store i32 %46, ptr %5, align 4
  br label %27

47:                                               ; preds = %39
  %48 = load i32, ptr %8, align 4
  %49 = icmp ne i32 %48, 0
  br i1 %49, label %50, label %53

50:                                               ; preds = %47
  %51 = getelementptr inbounds nuw %struct.ErrorContextCallback, ptr %11, i32 0, i32 0
  %52 = load ptr, ptr %51, align 8
  store ptr %52, ptr @error_context_stack, align 8
  br label %53

53:                                               ; preds = %50, %47
  call void @llvm.lifetime.end.p0(i64 1, ptr %12) #6
  call void @llvm.lifetime.end.p0(i64 24, ptr %11) #6
  call void @llvm.lifetime.end.p0(i64 24, ptr %10) #6
  call void @llvm.lifetime.end.p0(i64 16, ptr %9) #6
  ret void
}