; Function Attrs: nounwind uwtable
define dso_local void @XactLockTableWait(i32 noundef %0, ptr noundef %1, ptr noundef %2, i32 noundef %3) local_unnamed_addr #1 {
  %5 = alloca %struct.LOCKTAG, align 4
  %6 = alloca %struct.XactLockTableWaitInfo, align 8
  %7 = alloca %struct.ErrorContextCallback, align 8
  call void @llvm.lifetime.start.p0(i64 16, ptr nonnull %5) #8
  call void @llvm.lifetime.start.p0(i64 24, ptr nonnull %6) #8
  call void @llvm.lifetime.start.p0(i64 24, ptr nonnull %7) #8
  %.not = icmp eq i32 %3, 0
  br i1 %.not, label %14, label %8

8:                                                ; preds = %4
  %9 = getelementptr inbounds nuw i8, ptr %6, i64 8
  store ptr %1, ptr %9, align 8
  %10 = getelementptr inbounds nuw i8, ptr %6, i64 16
  store ptr %2, ptr %10, align 8
  store i32 %3, ptr %6, align 8
  %11 = getelementptr inbounds nuw i8, ptr %7, i64 8
  store ptr @XactLockTableWaitErrorCb, ptr %11, align 8
  %12 = getelementptr inbounds nuw i8, ptr %7, i64 16
  store ptr %6, ptr %12, align 8
  %13 = load ptr, ptr @error_context_stack, align 8
  store ptr %13, ptr %7, align 8
  store ptr %7, ptr @error_context_stack, align 8
  br label %14

14:                                               ; preds = %8, %4
  %15 = getelementptr inbounds nuw i8, ptr %5, i64 4
  %16 = getelementptr inbounds nuw i8, ptr %5, i64 8
  %17 = getelementptr inbounds nuw i8, ptr %5, i64 12
  %18 = getelementptr inbounds nuw i8, ptr %5, i64 14
  %19 = getelementptr inbounds nuw i8, ptr %5, i64 15
  br label %20

20:                                               ; preds = %26, %14
  %.08 = phi i32 [ %0, %14 ], [ %27, %26 ]
  %.0 = phi i1 [ true, %14 ], [ false, %26 ]
  store i32 %.08, ptr %5, align 4
  store i32 0, ptr %15, align 4
  store i32 0, ptr %16, align 4
  store i16 0, ptr %17, align 4
  store i8 5, ptr %18, align 2
  store i8 1, ptr %19, align 1
  %21 = call i32 @LockAcquire(ptr noundef nonnull %5, i32 noundef 5, i1 noundef zeroext false, i1 noundef zeroext false) #8
  %22 = call zeroext i1 @LockRelease(ptr noundef nonnull %5, i32 noundef 5, i1 noundef zeroext false) #8
  %23 = call zeroext i1 @TransactionIdIsInProgress(i32 noundef %.08) #8
  br i1 %23, label %24, label %28

24:                                               ; preds = %20
  br i1 %.0, label %26, label %25

25:                                               ; preds = %24
  call void @pg_usleep(i64 noundef 1000) #8
  br label %26

26:                                               ; preds = %25, %24
  %27 = call i32 @SubTransGetTopmostTransaction(i32 noundef %.08) #8
  br label %20

28:                                               ; preds = %20
  br i1 %.not, label %31, label %29

29:                                               ; preds = %28
  %30 = load ptr, ptr %7, align 8
  store ptr %30, ptr @error_context_stack, align 8
  br label %31

31:                                               ; preds = %29, %28
  call void @llvm.lifetime.end.p0(i64 24, ptr nonnull %7) #8
  call void @llvm.lifetime.end.p0(i64 24, ptr nonnull %6) #8
  call void @llvm.lifetime.end.p0(i64 16, ptr nonnull %5) #8
  ret void
}